target datalayout = "e-m:e-p270:32:32-p271:32:32-p272:64:64-i64:64-i128:128-f80:128-n8:16:32:64-S128"
target triple = "x86_64-pc-linux-gnu"

%struct.H5FL_arr_head_t = type { i8, i32, i64, ptr, i32, i64, i64, ptr }
%struct.H5FL_arr_node_t = type { i64, i32, i32, ptr }

@H5FL_init_g = global i8 0, align 1
@H5_libterm_g = external global i8, align 1
@.str.2 = private unnamed_addr constant [98 x i8] c"generated/home/dtcxzyw/WorkSpace/Projects/compilers/llvm-opt-benchmark/bench/hdf5/hdf5/src/H5FL.c\00", align 1
@H5E_RESOURCE_g = external global i64, align 8
@H5E_NOSPACE_g = external global i64, align 8
@.str.5 = private unnamed_addr constant [25 x i8] c"memory allocation failed\00", align 1
@__func__.H5FL_arr_calloc = private unnamed_addr constant [16 x i8] c"H5FL_arr_calloc\00", align 1

; Function Attrs: nounwind uwtable
define noalias ptr @H5FL_arr_calloc(ptr noundef %0, i64 noundef %1) #0 {
  %3 = alloca ptr, align 8
  %4 = alloca i64, align 8
  %5 = alloca ptr, align 8
  %6 = alloca i8, align 1
  store ptr %0, ptr %3, align 8, !tbaa !101
  store i64 %1, ptr %4, align 8, !tbaa !11
  call void @llvm.lifetime.start.p0(i64 8, ptr %5) #9
  store ptr null, ptr %5, align 8, !tbaa !69
  call void @llvm.lifetime.start.p0(i64 1, ptr %6) #9
  store i8 0, ptr %6, align 1, !tbaa !7
  %7 = load i8, ptr @H5FL_init_g, align 1, !tbaa !7, !range !9, !noundef !10
  %8 = trunc i8 %7 to i1
  br i1 %8, label %13, label %9

9:                                                ; preds = %2
  %10 = load i8, ptr @H5_libterm_g, align 1, !tbaa !7, !range !9, !noundef !10
  %11 = trunc i8 %10 to i1
  %12 = xor i1 %11, true
  br label %13

13:                                               ; preds = %9, %2
  %14 = phi i1 [ false, %2 ], [ %12, %9 ]
  %15 = xor i1 %14, true
  %16 = xor i1 %15, true
  %17 = zext i1 %16 to i32
  %18 = sext i32 %17 to i64
  %19 = call i64 @llvm.expect.i64(i64 %18, i64 0)
  %20 = icmp ne i64 %19, 0
  br i1 %20, label %21, label %22

21:                                               ; preds = %13
  store i8 1, ptr @H5FL_init_g, align 1, !tbaa !7
  br label %22

22:                                               ; preds = %21, %13
  %23 = load i8, ptr @H5FL_init_g, align 1, !tbaa !7, !range !9, !noundef !10
  %24 = trunc i8 %23 to i1
  br i1 %24, label %29, label %25

25:                                               ; preds = %22
  %26 = load i8, ptr @H5_libterm_g, align 1, !tbaa !7, !range !9, !noundef !10
  %27 = trunc i8 %26 to i1
  %28 = xor i1 %27, true
  br label %29

29:                                               ; preds = %25, %22
  %30 = phi i1 [ true, %22 ], [ %28, %25 ]
  %31 = xor i1 %30, true
  %32 = xor i1 %31, true
  %33 = zext i1 %32 to i32
  %34 = sext i32 %33 to i64
  %35 = call i64 @llvm.expect.i64(i64 %34, i64 1)
  %36 = icmp ne i64 %35, 0
  br i1 %36, label %37, label %71

37:                                               ; preds = %29
  %38 = load ptr, ptr %3, align 8, !tbaa !101
  %39 = load i64, ptr %4, align 8, !tbaa !11
  %40 = call noalias ptr @H5FL_arr_malloc(ptr noundef %38, i64 noundef %39)
  store ptr %40, ptr %5, align 8, !tbaa !69
  %41 = icmp eq ptr null, %40
  br i1 %41, label %42, label %61

42:                                               ; preds = %37
  br label %43

43:                                               ; preds = %42
  br label %44

44:                                               ; preds = %43
  br label %45

45:                                               ; preds = %44
  %46 = load i64, ptr @H5E_RESOURCE_g, align 8, !tbaa !11
  %47 = load i64, ptr @H5E_NOSPACE_g, align 8, !tbaa !11
  %48 = call i32 (ptr, ptr, i32, i64, i64, ptr, ...) @H5E_printf_stack(ptr noundef @.str.2, ptr noundef @__func__.H5FL_arr_calloc, i32 noundef 1350, i64 noundef %46, i64 noundef %47, ptr noundef @.str.5)
  br label %49

49:                                               ; preds = %45
  br label %50

50:                                               ; preds = %49
  store i8 1, ptr %6, align 1, !tbaa !7
  %51 = load i8, ptr %6, align 1, !tbaa !7, !range !9, !noundef !10
  %52 = trunc i8 %51 to i1
  %53 = zext i1 %52 to i8
  store i8 %53, ptr %6, align 1, !tbaa !7
  br label %54

54:                                               ; preds = %50
  br label %55

55:                                               ; preds = %54
  br label %56

56:                                               ; preds = %55
  store ptr null, ptr %5, align 8, !tbaa !69
  br label %70

57:                                               ; No predecessors!
  br label %58

58:                                               ; preds = %57
  br label %59

59:                                               ; preds = %58
  br label %60

60:                                               ; preds = %59
  br label %61

61:                                               ; preds = %60, %37
  %62 = load ptr, ptr %5, align 8, !tbaa !69
  %63 = load ptr, ptr %3, align 8, !tbaa !101
  %64 = getelementptr inbounds nuw %struct.H5FL_arr_head_t, ptr %63, i32 0, i32 7
  %65 = load ptr, ptr %64, align 8, !tbaa !52
  %66 = load i64, ptr %4, align 8, !tbaa !11
  %67 = getelementptr inbounds nuw %struct.H5FL_arr_node_t, ptr %65, i64 %66
  %68 = getelementptr inbounds nuw %struct.H5FL_arr_node_t, ptr %67, i32 0, i32 0
  %69 = load i64, ptr %68, align 8, !tbaa !106
  call void @llvm.memset.p0.i64(ptr align 1 %62, i8 0, i64 %69, i1 false)
  br label %70

70:                                               ; preds = %61, %56
  br label %71

71:                                               ; preds = %70, %29
  %72 = load ptr, ptr %5, align 8, !tbaa !69
  call void @llvm.lifetime.end.p0(i64 1, ptr %6) #9
  call void @llvm.lifetime.end.p0(i64 8, ptr %5) #9
  ret ptr %72
}