; Function Attrs: nounwind uwtable
define noalias ptr @H5FL_arr_calloc(ptr noundef %0, i64 noundef %1) local_unnamed_addr #0 {
  %3 = load i8, ptr @H5FL_init_g, align 1, !tbaa !3, !range !7, !noundef !8
  %4 = trunc nuw i8 %3 to i1
  %5 = load i8, ptr @H5_libterm_g, align 1, !range !7
  %6 = trunc nuw i8 %5 to i1
  %7 = select i1 %4, i1 true, i1 %6
  br i1 %7, label %8, label %.thread, !prof !15

.thread:                                          ; preds = %2
  store i8 1, ptr @H5FL_init_g, align 1, !tbaa !3
  br label %11

8:                                                ; preds = %2
  %9 = xor i1 %6, true
  %10 = select i1 %4, i1 true, i1 %9
  br i1 %10, label %11, label %23, !prof !87

11:                                               ; preds = %.thread, %8
  %12 = tail call noalias ptr @H5FL_arr_malloc(ptr noundef %0, i64 noundef %1)
  %13 = icmp eq ptr %12, null
  br i1 %13, label %14, label %18

14:                                               ; preds = %11
  %15 = load i64, ptr @H5E_RESOURCE_g, align 8, !tbaa !86
  %16 = load i64, ptr @H5E_NOSPACE_g, align 8, !tbaa !86
  %17 = tail call i32 (ptr, ptr, i32, i64, i64, ptr, ...) @H5E_printf_stack(ptr noundef nonnull @.str.2, ptr noundef nonnull @__func__.H5FL_arr_calloc, i32 noundef 1350, i64 noundef %15, i64 noundef %16, ptr noundef nonnull @.str.5) #10
  br label %23

18:                                               ; preds = %11
  %19 = getelementptr inbounds nuw i8, ptr %0, i64 48
  %20 = load ptr, ptr %19, align 8, !tbaa !48
  %21 = getelementptr inbounds nuw %struct.H5FL_arr_node_t, ptr %20, i64 %1
  %22 = load i64, ptr %21, align 8, !tbaa !108
  tail call void @llvm.memset.p0.i64(ptr nonnull align 1 %12, i8 0, i64 %22, i1 false)
  br label %23

23:                                               ; preds = %14, %18, %8
  %.0 = phi ptr [ null, %14 ], [ %12, %18 ], [ null, %8 ]
  ret ptr %.0
}